; Function Attrs: mustprogress uwtable
define void @_ZN7rocksdb12EscapeStringB5cxx11ERKNS_5SliceE(ptr dead_on_unwind noalias writable sret(%"class.std::__cxx11::basic_string") align 8 %0, ptr noundef nonnull readonly align 8 captures(none) dereferenceable(16) %1) local_unnamed_addr #3 personality ptr @__gxx_personality_v0 {
  %3 = getelementptr inbounds nuw i8, ptr %0, i64 16
  store ptr %3, ptr %0, align 8, !tbaa !4
  %4 = getelementptr inbounds nuw i8, ptr %0, i64 8
  store i64 0, ptr %4, align 8, !tbaa !10
  store i8 0, ptr %3, align 8, !tbaa !13
  invoke void @_ZN7rocksdb21AppendEscapedStringToEPNSt7__cxx1112basic_stringIcSt11char_traitsIcESaIcEEERKNS_5SliceE(ptr noundef nonnull %0, ptr noundef nonnull align 8 dereferenceable(16) %1)
          to label %13 unwind label %5

5:                                                ; preds = %2
  %6 = landingpad { ptr, i32 }
          cleanup
  %7 = load ptr, ptr %0, align 8, !tbaa !30
  %8 = icmp eq ptr %7, %3
  br i1 %8, label %_ZNKSt7__cxx1112basic_stringIcSt11char_traitsIcESaIcEE11_M_is_localEv.exit.thread.i.i, label %_ZNKSt7__cxx1112basic_stringIcSt11char_traitsIcESaIcEE11_M_is_localEv.exit.i.i

_ZNKSt7__cxx1112basic_stringIcSt11char_traitsIcESaIcEE11_M_is_localEv.exit.thread.i.i: ; preds = %5
  %9 = load i64, ptr %4, align 8, !tbaa !10
  %10 = icmp ult i64 %9, 16
  tail call void @llvm.assume(i1 %10)
  br label %_ZNSt7__cxx1112basic_stringIcSt11char_traitsIcESaIcEED2Ev.exit

_ZNKSt7__cxx1112basic_stringIcSt11char_traitsIcESaIcEE11_M_is_localEv.exit.i.i: ; preds = %5
  %11 = load i64, ptr %3, align 8, !tbaa !13
  %12 = add i64 %11, 1
  tail call void @_ZdlPvm(ptr noundef %7, i64 noundef %12) #27
  br label %_ZNSt7__cxx1112basic_stringIcSt11char_traitsIcESaIcEED2Ev.exit

_ZNSt7__cxx1112basic_stringIcSt11char_traitsIcESaIcEED2Ev.exit: ; preds = %_ZNKSt7__cxx1112basic_stringIcSt11char_traitsIcESaIcEE11_M_is_localEv.exit.thread.i.i, %_ZNKSt7__cxx1112basic_stringIcSt11char_traitsIcESaIcEE11_M_is_localEv.exit.i.i
  resume { ptr, i32 } %6

13:                                               ; preds = %2
  ret void
}